; Function Attrs: nounwind uwtable
define ptr @ff_null_get_video_buffer(ptr noundef readonly captures(none) %0, i32 noundef %1, i32 noundef %2) local_unnamed_addr #0 {
  %4 = getelementptr inbounds nuw i8, ptr %0, i64 16
  %5 = load ptr, ptr %4, align 8, !tbaa !4
  %6 = getelementptr inbounds nuw i8, ptr %5, i64 56
  %7 = load ptr, ptr %6, align 8, !tbaa !19
  %8 = load ptr, ptr %7, align 8, !tbaa !29
  %9 = getelementptr inbounds nuw i8, ptr %8, i64 24
  %10 = load ptr, ptr %9, align 8, !tbaa !31
  %11 = getelementptr inbounds nuw i8, ptr %10, i64 16
  %12 = load ptr, ptr %11, align 8, !tbaa !32
  %.not.i = icmp eq ptr %12, null
  br i1 %.not.i, label %.thread.i, label %13

13:                                               ; preds = %3
  %14 = tail call ptr %12(ptr noundef nonnull %8, i32 noundef %1, i32 noundef %2) #3
  %.not10.i = icmp eq ptr %14, null
  br i1 %.not10.i, label %.thread.i, label %ff_get_video_buffer.exit

.thread.i:                                        ; preds = %13, %3
  %15 = tail call i64 @av_cpu_max_align() #3
  %16 = trunc i64 %15 to i32
  %17 = tail call ptr @ff_default_get_video_buffer2(ptr noundef nonnull %8, i32 noundef %1, i32 noundef %2, i32 noundef %16)
  br label %ff_get_video_buffer.exit

ff_get_video_buffer.exit:                         ; preds = %13, %.thread.i
  %.1.i = phi ptr [ %14, %13 ], [ %17, %.thread.i ]
  ret ptr %.1.i
}